target datalayout = "e-m:e-p270:32:32-p271:32:32-p272:64:64-i64:64-i128:128-f80:128-n8:16:32:64-S128"
target triple = "x86_64-pc-linux-gnu"

%struct.pa_sample_spec = type { i32, i32, i8 }
%struct.PaPulseAudio_Stream = type { %struct.PaUtilStreamRepresentation, %struct.PaUtilCpuLoadMeasurer, %struct.PaUtilBufferProcessor, ptr, i64, ptr, ptr, %struct.pa_sample_spec, %struct.pa_sample_spec, ptr, ptr, %struct.pa_buffer_attr, %struct.pa_buffer_attr, i32, i32, i32, i32, i64, i64, i32, i32, i32, i32, ptr, ptr, %struct.PaUtilRingBuffer, i64, i32, i32, i32, i32 }
%struct.PaUtilStreamRepresentation = type { i64, ptr, ptr, ptr, ptr, ptr, %struct.PaStreamInfo }
%struct.PaStreamInfo = type { i32, double, double, double }
%struct.PaUtilCpuLoadMeasurer = type { double, double, double }
%struct.PaUtilBufferProcessor = type { i64, i64, i32, i32, i32, i32, i64, i32, i32, i32, i32, ptr, ptr, i32, i32, i32, i32, ptr, ptr, i64, i64, ptr, ptr, i64, ptr, ptr, i64, ptr, i64, i32, [2 x i64], [2 x ptr], i32, [2 x i64], [2 x ptr], %struct.PaUtilTriangularDitherGenerator, double, ptr, ptr }
%struct.PaUtilTriangularDitherGenerator = type { i32, i32, i32 }
%struct.pa_buffer_attr = type { i32, i32, i32, i32, i32 }
%struct.PaUtilRingBuffer = type { i64, i64, i64, i64, i64, i64, ptr }

@.str.2 = private unnamed_addr constant [3 x i8] c"%s\00", align 1

; Function Attrs: nounwind uwtable
define i32 @PaPulseAudio_RenameSource(ptr noundef %0, ptr noundef %1) #0 {
  %3 = alloca i32, align 4
  %4 = alloca ptr, align 8
  %5 = alloca ptr, align 8
  %6 = alloca ptr, align 8
  %7 = alloca i32, align 4
  %8 = alloca ptr, align 8
  %9 = alloca ptr, align 8
  store ptr %0, ptr %4, align 8
  store ptr %1, ptr %5, align 8
  %10 = load ptr, ptr %4, align 8
  store ptr %10, ptr %6, align 8
  store i32 0, ptr %7, align 4
  store ptr null, ptr %8, align 8
  %11 = load ptr, ptr %6, align 8
  %12 = getelementptr inbounds nuw %struct.PaPulseAudio_Stream, ptr %11, i32 0, i32 10
  %13 = load ptr, ptr %12, align 8
  %14 = icmp eq ptr %13, null
  br i1 %14, label %15, label %16

15:                                               ; preds = %2
  store i32 -9996, ptr %3, align 4
  br label %62

16:                                               ; preds = %2
  %17 = load ptr, ptr %6, align 8
  %18 = getelementptr inbounds nuw %struct.PaPulseAudio_Stream, ptr %17, i32 0, i32 5
  %19 = load ptr, ptr %18, align 8
  call void @PaPulseAudio_Lock(ptr noundef %19)
  %20 = load ptr, ptr %5, align 8
  %21 = call i64 @strnlen(ptr noundef %20, i64 noundef 1024) #9
  %22 = add i64 %21, 1
  %23 = call ptr @PaUtil_AllocateZeroInitializedMemory(i64 noundef %22)
  store ptr %23, ptr %9, align 8
  %24 = load ptr, ptr %9, align 8
  %25 = icmp ne ptr %24, null
  br i1 %25, label %30, label %26

26:                                               ; preds = %16
  %27 = load ptr, ptr %6, align 8
  %28 = getelementptr inbounds nuw %struct.PaPulseAudio_Stream, ptr %27, i32 0, i32 5
  %29 = load ptr, ptr %28, align 8
  call void @PaPulseAudio_UnLock(ptr noundef %29)
  store i32 -9992, ptr %3, align 4
  br label %62

30:                                               ; preds = %16
  %31 = load ptr, ptr %9, align 8
  %32 = load ptr, ptr %5, align 8
  %33 = call i64 @strnlen(ptr noundef %32, i64 noundef 1024) #9
  %34 = add i64 %33, 1
  %35 = load ptr, ptr %5, align 8
  %36 = call i32 (ptr, i64, ptr, ...) @snprintf(ptr noundef %31, i64 noundef %34, ptr noundef @.str.2, ptr noundef %35) #8
  %37 = load ptr, ptr %6, align 8
  %38 = getelementptr inbounds nuw %struct.PaPulseAudio_Stream, ptr %37, i32 0, i32 24
  %39 = load ptr, ptr %38, align 8
  call void @PaUtil_FreeMemory(ptr noundef %39)
  %40 = load ptr, ptr %9, align 8
  %41 = load ptr, ptr %6, align 8
  %42 = getelementptr inbounds nuw %struct.PaPulseAudio_Stream, ptr %41, i32 0, i32 24
  store ptr %40, ptr %42, align 8
  %43 = load ptr, ptr %6, align 8
  %44 = getelementptr inbounds nuw %struct.PaPulseAudio_Stream, ptr %43, i32 0, i32 10
  %45 = load ptr, ptr %44, align 8
  %46 = load ptr, ptr %5, align 8
  %47 = load ptr, ptr %6, align 8
  %48 = call ptr @pa_stream_set_name(ptr noundef %45, ptr noundef %46, ptr noundef @RenameStreamCb, ptr noundef %47)
  store ptr %48, ptr %8, align 8
  %49 = load ptr, ptr %6, align 8
  %50 = getelementptr inbounds nuw %struct.PaPulseAudio_Stream, ptr %49, i32 0, i32 5
  %51 = load ptr, ptr %50, align 8
  call void @PaPulseAudio_UnLock(ptr noundef %51)
  br label %52

52:                                               ; preds = %56, %30
  %53 = load ptr, ptr %8, align 8
  %54 = call i32 @pa_operation_get_state(ptr noundef %53)
  %55 = icmp eq i32 %54, 0
  br i1 %55, label %56, label %60

56:                                               ; preds = %52
  %57 = load ptr, ptr %6, align 8
  %58 = getelementptr inbounds nuw %struct.PaPulseAudio_Stream, ptr %57, i32 0, i32 5
  %59 = load ptr, ptr %58, align 8
  call void @pa_threaded_mainloop_wait(ptr noundef %59)
  br label %52, !llvm.loop !11

60:                                               ; preds = %52
  %61 = load i32, ptr %7, align 4
  store i32 %61, ptr %3, align 4
  br label %62

62:                                               ; preds = %60, %26, %15
  %63 = load i32, ptr %3, align 4
  ret i32 %63
}