; Function Attrs: nounwind uwtable
define range(i32 -9996, 1) i32 @PaPulseAudio_RenameSource(ptr noundef %0, ptr noundef %1) local_unnamed_addr #0 {
  %3 = getelementptr inbounds nuw i8, ptr %0, i64 472
  %4 = load ptr, ptr %3, align 8
  %5 = icmp eq ptr %4, null
  br i1 %5, label %.loopexit, label %6

6:                                                ; preds = %2
  %7 = getelementptr inbounds nuw i8, ptr %0, i64 424
  %8 = load ptr, ptr %7, align 8
  tail call void @PaPulseAudio_Lock(ptr noundef %8) #13
  %9 = tail call i64 @strnlen(ptr noundef nonnull dereferenceable(1) %1, i64 noundef 1024) #14
  %10 = add i64 %9, 1
  %11 = tail call ptr @PaUtil_AllocateZeroInitializedMemory(i64 noundef %10) #13
  %.not = icmp eq ptr %11, null
  br i1 %.not, label %12, label %14

12:                                               ; preds = %6
  %13 = load ptr, ptr %7, align 8
  tail call void @PaPulseAudio_UnLock(ptr noundef %13) #13
  br label %.loopexit

14:                                               ; preds = %6
  %15 = tail call i64 @strnlen(ptr noundef nonnull dereferenceable(1) %1, i64 noundef 1024) #14
  %16 = add i64 %15, 1
  %17 = tail call i32 (ptr, i64, ptr, ...) @snprintf(ptr noundef nonnull %11, i64 noundef %16, ptr noundef nonnull @.str.2, ptr noundef %1) #13
  %18 = getelementptr inbounds nuw i8, ptr %0, i64 576
  %19 = load ptr, ptr %18, align 8
  tail call void @PaUtil_FreeMemory(ptr noundef %19) #13
  store ptr %11, ptr %18, align 8
  %20 = load ptr, ptr %3, align 8
  %21 = tail call ptr @pa_stream_set_name(ptr noundef %20, ptr noundef %1, ptr noundef nonnull @RenameStreamCb, ptr noundef nonnull %0) #13
  %22 = load ptr, ptr %7, align 8
  tail call void @PaPulseAudio_UnLock(ptr noundef %22) #13
  %23 = tail call i32 @pa_operation_get_state(ptr noundef %21) #13
  %24 = icmp eq i32 %23, 0
  br i1 %24, label %.lr.ph, label %.loopexit

.lr.ph:                                           ; preds = %14, %.lr.ph
  %25 = load ptr, ptr %7, align 8
  tail call void @pa_threaded_mainloop_wait(ptr noundef %25) #13
  %26 = tail call i32 @pa_operation_get_state(ptr noundef %21) #13
  %27 = icmp eq i32 %26, 0
  br i1 %27, label %.lr.ph, label %.loopexit, !llvm.loop !9

.loopexit:                                        ; preds = %.lr.ph, %14, %2, %12
  %.0 = phi i32 [ -9992, %12 ], [ -9996, %2 ], [ 0, %14 ], [ 0, %.lr.ph ]
  ret i32 %.0
}